target datalayout = "e-m:e-p270:32:32-p271:32:32-p272:64:64-i64:64-i128:128-f80:128-n8:16:32:64-S128"
target triple = "x86_64-pc-linux-gnu"

%struct.pointf_s = type { double, double }

@.str.86 = private unnamed_addr constant [21 x i8] c"move to (%.0f, %.0f)\00", align 1
@.str.88 = private unnamed_addr constant [2 x i8] c"\0A\00", align 1
@.str.89 = private unnamed_addr constant [25 x i8] c"; spline to (%.0f, %.0f)\00", align 1

; Function Attrs: nounwind uwtable
define internal void @pic_bezier(ptr noundef %0, ptr noundef %1, i64 noundef %2, i32 noundef %3) #0 {
  %5 = alloca ptr, align 8
  %6 = alloca ptr, align 8
  %7 = alloca i64, align 8
  %8 = alloca i32, align 4
  %9 = alloca [4 x %struct.pointf_s], align 16
  %10 = alloca i64, align 8
  %11 = alloca i32, align 4
  %12 = alloca i64, align 8
  %13 = alloca i32, align 4
  %14 = alloca %struct.pointf_s, align 8
  store ptr %0, ptr %5, align 8, !tbaa !3
  store ptr %1, ptr %6, align 8, !tbaa !61
  store i64 %2, ptr %7, align 8, !tbaa !63
  store i32 %3, ptr %8, align 4, !tbaa !39
  call void @llvm.lifetime.start.p0(i64 64, ptr %9) #8
  %15 = load ptr, ptr %6, align 8, !tbaa !61
  %16 = getelementptr inbounds %struct.pointf_s, ptr %15, i64 0
  %17 = getelementptr inbounds nuw %struct.pointf_s, ptr %16, i32 0, i32 0
  %18 = load double, ptr %17, align 8, !tbaa !53
  %19 = getelementptr inbounds [4 x %struct.pointf_s], ptr %9, i64 0, i64 3
  %20 = getelementptr inbounds nuw %struct.pointf_s, ptr %19, i32 0, i32 0
  store double %18, ptr %20, align 16, !tbaa !53
  %21 = load ptr, ptr %6, align 8, !tbaa !61
  %22 = getelementptr inbounds %struct.pointf_s, ptr %21, i64 0
  %23 = getelementptr inbounds nuw %struct.pointf_s, ptr %22, i32 0, i32 1
  %24 = load double, ptr %23, align 8, !tbaa !58
  %25 = getelementptr inbounds [4 x %struct.pointf_s], ptr %9, i64 0, i64 3
  %26 = getelementptr inbounds nuw %struct.pointf_s, ptr %25, i32 0, i32 1
  store double %24, ptr %26, align 8, !tbaa !58
  %27 = load ptr, ptr %5, align 8, !tbaa !3
  %28 = load ptr, ptr %6, align 8, !tbaa !61
  %29 = getelementptr inbounds %struct.pointf_s, ptr %28, i64 0
  %30 = getelementptr inbounds nuw %struct.pointf_s, ptr %29, i32 0, i32 0
  %31 = load double, ptr %30, align 8, !tbaa !53
  %32 = load ptr, ptr %6, align 8, !tbaa !61
  %33 = getelementptr inbounds %struct.pointf_s, ptr %32, i64 0
  %34 = getelementptr inbounds nuw %struct.pointf_s, ptr %33, i32 0, i32 1
  %35 = load double, ptr %34, align 8, !tbaa !58
  call void (ptr, ptr, ...) @gvprintf(ptr noundef %27, ptr noundef @.str.86, double noundef %31, double noundef %35)
  call void @llvm.lifetime.start.p0(i64 8, ptr %10) #8
  store i64 0, ptr %10, align 8, !tbaa !63
  br label %36

36:                                               ; preds = %97, %4
  %37 = load i64, ptr %10, align 8, !tbaa !63
  %38 = add i64 %37, 3
  %39 = load i64, ptr %7, align 8, !tbaa !63
  %40 = icmp ult i64 %38, %39
  br i1 %40, label %42, label %41

41:                                               ; preds = %36
  store i32 2, ptr %11, align 4
  call void @llvm.lifetime.end.p0(i64 8, ptr %10) #8
  br label %100

42:                                               ; preds = %36
  %43 = getelementptr inbounds [4 x %struct.pointf_s], ptr %9, i64 0, i64 0
  %44 = getelementptr inbounds [4 x %struct.pointf_s], ptr %9, i64 0, i64 3
  call void @llvm.memcpy.p0.p0.i64(ptr align 16 %43, ptr align 16 %44, i64 16, i1 false), !tbaa.struct !64
  call void @llvm.lifetime.start.p0(i64 8, ptr %12) #8
  store i64 1, ptr %12, align 8, !tbaa !63
  br label %45

45:                                               ; preds = %70, %42
  %46 = load i64, ptr %12, align 8, !tbaa !63
  %47 = icmp ule i64 %46, 3
  br i1 %47, label %49, label %48

48:                                               ; preds = %45
  store i32 5, ptr %11, align 4
  call void @llvm.lifetime.end.p0(i64 8, ptr %12) #8
  br label %73

49:                                               ; preds = %45
  %50 = load ptr, ptr %6, align 8, !tbaa !61
  %51 = load i64, ptr %10, align 8, !tbaa !63
  %52 = load i64, ptr %12, align 8, !tbaa !63
  %53 = add i64 %51, %52
  %54 = getelementptr inbounds nuw %struct.pointf_s, ptr %50, i64 %53
  %55 = getelementptr inbounds nuw %struct.pointf_s, ptr %54, i32 0, i32 0
  %56 = load double, ptr %55, align 8, !tbaa !53
  %57 = load i64, ptr %12, align 8, !tbaa !63
  %58 = getelementptr inbounds nuw [4 x %struct.pointf_s], ptr %9, i64 0, i64 %57
  %59 = getelementptr inbounds nuw %struct.pointf_s, ptr %58, i32 0, i32 0
  store double %56, ptr %59, align 16, !tbaa !53
  %60 = load ptr, ptr %6, align 8, !tbaa !61
  %61 = load i64, ptr %10, align 8, !tbaa !63
  %62 = load i64, ptr %12, align 8, !tbaa !63
  %63 = add i64 %61, %62
  %64 = getelementptr inbounds nuw %struct.pointf_s, ptr %60, i64 %63
  %65 = getelementptr inbounds nuw %struct.pointf_s, ptr %64, i32 0, i32 1
  %66 = load double, ptr %65, align 8, !tbaa !58
  %67 = load i64, ptr %12, align 8, !tbaa !63
  %68 = getelementptr inbounds nuw [4 x %struct.pointf_s], ptr %9, i64 0, i64 %67
  %69 = getelementptr inbounds nuw %struct.pointf_s, ptr %68, i32 0, i32 1
  store double %66, ptr %69, align 8, !tbaa !58
  br label %70

70:                                               ; preds = %49
  %71 = load i64, ptr %12, align 8, !tbaa !63
  %72 = add i64 %71, 1
  store i64 %72, ptr %12, align 8, !tbaa !63
  br label %45, !llvm.loop !65

73:                                               ; preds = %48
  call void @llvm.lifetime.start.p0(i64 4, ptr %13) #8
  store i32 1, ptr %13, align 4, !tbaa !39
  br label %74

74:                                               ; preds = %93, %73
  %75 = load i32, ptr %13, align 4, !tbaa !39
  %76 = icmp sle i32 %75, 6
  br i1 %76, label %78, label %77

77:                                               ; preds = %74
  store i32 8, ptr %11, align 4
  call void @llvm.lifetime.end.p0(i64 4, ptr %13) #8
  br label %96

78:                                               ; preds = %74
  call void @llvm.lifetime.start.p0(i64 16, ptr %14) #8
  %79 = getelementptr inbounds [4 x %struct.pointf_s], ptr %9, i64 0, i64 0
  %80 = load i32, ptr %13, align 4, !tbaa !39
  %81 = sitofp i32 %80 to double
  %82 = fdiv double %81, 6.000000e+00
  %83 = call { double, double } @Bezier(ptr noundef %79, double noundef %82, ptr noundef null, ptr noundef null)
  %84 = getelementptr inbounds nuw { double, double }, ptr %14, i32 0, i32 0
  %85 = extractvalue { double, double } %83, 0
  store double %85, ptr %84, align 8
  %86 = getelementptr inbounds nuw { double, double }, ptr %14, i32 0, i32 1
  %87 = extractvalue { double, double } %83, 1
  store double %87, ptr %86, align 8
  %88 = load ptr, ptr %5, align 8, !tbaa !3
  %89 = getelementptr inbounds nuw %struct.pointf_s, ptr %14, i32 0, i32 0
  %90 = load double, ptr %89, align 8, !tbaa !53
  %91 = getelementptr inbounds nuw %struct.pointf_s, ptr %14, i32 0, i32 1
  %92 = load double, ptr %91, align 8, !tbaa !58
  call void (ptr, ptr, ...) @gvprintf(ptr noundef %88, ptr noundef @.str.89, double noundef %90, double noundef %92)
  call void @llvm.lifetime.end.p0(i64 16, ptr %14) #8
  br label %93

93:                                               ; preds = %78
  %94 = load i32, ptr %13, align 4, !tbaa !39
  %95 = add nsw i32 %94, 1
  store i32 %95, ptr %13, align 4, !tbaa !39
  br label %74, !llvm.loop !67

96:                                               ; preds = %77
  br label %97

97:                                               ; preds = %96
  %98 = load i64, ptr %10, align 8, !tbaa !63
  %99 = add i64 %98, 3
  store i64 %99, ptr %10, align 8, !tbaa !63
  br label %36, !llvm.loop !68

100:                                              ; preds = %41
  %101 = load ptr, ptr %5, align 8, !tbaa !3
  %102 = call i32 @gvputs(ptr noundef %101, ptr noundef @.str.88)
  call void @llvm.lifetime.end.p0(i64 64, ptr %9) #8
  ret void
}