; Function Attrs: nounwind uwtable
define internal void @pic_bezier(ptr noundef %0, ptr noundef readonly captures(none) %1, i64 noundef %2, i32 %3) #0 {
  %5 = alloca [4 x %struct.pointf_s], align 16
  call void @llvm.lifetime.start.p0(i64 64, ptr nonnull %5) #8
  %6 = load double, ptr %1, align 8, !tbaa !52
  %7 = getelementptr inbounds nuw i8, ptr %5, i64 48
  store double %6, ptr %7, align 16, !tbaa !52
  %8 = getelementptr inbounds nuw i8, ptr %1, i64 8
  %9 = load double, ptr %8, align 8, !tbaa !53
  %10 = getelementptr inbounds nuw i8, ptr %5, i64 56
  store double %9, ptr %10, align 8, !tbaa !53
  tail call void (ptr, ptr, ...) @gvprintf(ptr noundef %0, ptr noundef nonnull @.str.86, double noundef %6, double noundef %9) #8
  %11 = icmp ugt i64 %2, 3
  br i1 %11, label %.lr.ph, label %._crit_edge

.loopexit:                                        ; preds = %.preheader
  %12 = add i64 %15, 3
  %13 = icmp ult i64 %12, %2
  br i1 %13, label %.lr.ph, label %._crit_edge, !llvm.loop !55

._crit_edge:                                      ; preds = %.loopexit, %4
  %14 = call i32 @gvputs(ptr noundef %0, ptr noundef nonnull @.str.88) #8
  call void @llvm.lifetime.end.p0(i64 64, ptr nonnull %5) #8
  ret void

.lr.ph:                                           ; preds = %4, %.loopexit
  %15 = phi i64 [ %12, %.loopexit ], [ 3, %4 ]
  %.027 = phi i64 [ %15, %.loopexit ], [ 0, %4 ]
  call void @llvm.memcpy.p0.p0.i64(ptr noundef nonnull align 16 dereferenceable(16) %5, ptr noundef nonnull align 16 dereferenceable(16) %7, i64 16, i1 false), !tbaa.struct !56
  %16 = getelementptr %struct.pointf_s, ptr %1, i64 %.027
  br label %17

17:                                               ; preds = %.lr.ph, %17
  %.02325 = phi i64 [ 1, %.lr.ph ], [ %24, %17 ]
  %18 = getelementptr %struct.pointf_s, ptr %16, i64 %.02325
  %19 = load double, ptr %18, align 8, !tbaa !52
  %20 = getelementptr inbounds nuw [4 x %struct.pointf_s], ptr %5, i64 0, i64 %.02325
  store double %19, ptr %20, align 16, !tbaa !52
  %21 = getelementptr inbounds nuw i8, ptr %18, i64 8
  %22 = load double, ptr %21, align 8, !tbaa !53
  %23 = getelementptr inbounds nuw i8, ptr %20, i64 8
  store double %22, ptr %23, align 8, !tbaa !53
  %24 = add nuw nsw i64 %.02325, 1
  %exitcond.not = icmp eq i64 %24, 4
  br i1 %exitcond.not, label %.preheader, label %17, !llvm.loop !57

.preheader:                                       ; preds = %17, %.preheader
  %.02226 = phi i32 [ %30, %.preheader ], [ 1, %17 ]
  %25 = uitofp nneg i32 %.02226 to double
  %26 = fdiv double %25, 6.000000e+00
  %27 = call { double, double } @Bezier(ptr noundef nonnull %5, double noundef %26, ptr noundef null, ptr noundef null) #8
  %28 = extractvalue { double, double } %27, 0
  %29 = extractvalue { double, double } %27, 1
  call void (ptr, ptr, ...) @gvprintf(ptr noundef %0, ptr noundef nonnull @.str.89, double noundef %28, double noundef %29) #8
  %30 = add nuw nsw i32 %.02226, 1
  %exitcond28.not = icmp eq i32 %30, 7
  br i1 %exitcond28.not, label %.loopexit, label %.preheader, !llvm.loop !58
}